target datalayout = "e-m:e-p270:32:32-p271:32:32-p272:64:64-i64:64-i128:128-f80:128-n8:16:32:64-S128"
target triple = "x86_64-pc-linux-gnu"

%struct.DdLocalCache = type { ptr, i32, i32, i32, i32, double, double, double, i32, ptr, ptr }
%struct.DdLocalCacheItem = type { ptr, [1 x ptr] }

; Function Attrs: inlinehint nounwind uwtable
define internal i32 @ddLCHash(ptr noundef %0, i32 noundef %1, i32 noundef %2) #7 {
  %4 = alloca ptr, align 8
  %5 = alloca i32, align 4
  %6 = alloca i32, align 4
  %7 = alloca i32, align 4
  %8 = alloca i32, align 4
  store ptr %0, ptr %4, align 8, !tbaa !49
  store i32 %1, ptr %5, align 4, !tbaa !8
  store i32 %2, ptr %6, align 4, !tbaa !8
  call void @llvm.lifetime.start.p0(i64 4, ptr %7) #10
  %9 = load ptr, ptr %4, align 8, !tbaa !49
  %10 = getelementptr inbounds ptr, ptr %9, i64 0
  %11 = load ptr, ptr %10, align 8, !tbaa !50
  %12 = ptrtoint ptr %11 to i64
  %13 = trunc i64 %12 to i32
  %14 = mul i32 %13, 4256249
  store i32 %14, ptr %7, align 4, !tbaa !8
  call void @llvm.lifetime.start.p0(i64 4, ptr %8) #10
  store i32 1, ptr %8, align 4, !tbaa !8
  br label %15

15:                                               ; preds = %30, %3
  %16 = load i32, ptr %8, align 4, !tbaa !8
  %17 = load i32, ptr %5, align 4, !tbaa !8
  %18 = icmp ult i32 %16, %17
  br i1 %18, label %19, label %33

19:                                               ; preds = %15
  %20 = load i32, ptr %7, align 4, !tbaa !8
  %21 = mul i32 %20, 12582917
  %22 = load ptr, ptr %4, align 8, !tbaa !49
  %23 = load i32, ptr %8, align 4, !tbaa !8
  %24 = zext i32 %23 to i64
  %25 = getelementptr inbounds nuw ptr, ptr %22, i64 %24
  %26 = load ptr, ptr %25, align 8, !tbaa !50
  %27 = ptrtoint ptr %26 to i64
  %28 = trunc i64 %27 to i32
  %29 = add i32 %21, %28
  store i32 %29, ptr %7, align 4, !tbaa !8
  br label %30

30:                                               ; preds = %19
  %31 = load i32, ptr %8, align 4, !tbaa !8
  %32 = add i32 %31, 1
  store i32 %32, ptr %8, align 4, !tbaa !8
  br label %15, !llvm.loop !54

33:                                               ; preds = %15
  %34 = load i32, ptr %7, align 4, !tbaa !8
  %35 = load i32, ptr %6, align 4, !tbaa !8
  %36 = lshr i32 %34, %35
  call void @llvm.lifetime.end.p0(i64 4, ptr %8) #10
  call void @llvm.lifetime.end.p0(i64 4, ptr %7) #10
  ret i32 %36
}

; Function Attrs: nounwind uwtable
define void @cuddLocalCacheInsert(ptr noundef %0, ptr noundef %1, ptr noundef %2) #0 {
  %4 = alloca ptr, align 8
  %5 = alloca ptr, align 8
  %6 = alloca ptr, align 8
  %7 = alloca i32, align 4
  %8 = alloca ptr, align 8
  store ptr %0, ptr %4, align 8, !tbaa !10
  store ptr %1, ptr %5, align 8, !tbaa !49
  store ptr %2, ptr %6, align 8, !tbaa !50
  call void @llvm.lifetime.start.p0(i64 4, ptr %7) #10
  call void @llvm.lifetime.start.p0(i64 8, ptr %8) #10
  %9 = load ptr, ptr %5, align 8, !tbaa !49
  %10 = load ptr, ptr %4, align 8, !tbaa !10
  %11 = getelementptr inbounds nuw %struct.DdLocalCache, ptr %10, i32 0, i32 2
  %12 = load i32, ptr %11, align 4, !tbaa !31
  %13 = load ptr, ptr %4, align 8, !tbaa !10
  %14 = getelementptr inbounds nuw %struct.DdLocalCache, ptr %13, i32 0, i32 4
  %15 = load i32, ptr %14, align 4, !tbaa !36
  %16 = call i32 @ddLCHash(ptr noundef %9, i32 noundef %12, i32 noundef %15)
  store i32 %16, ptr %7, align 4, !tbaa !8
  %17 = load ptr, ptr %4, align 8, !tbaa !10
  %18 = getelementptr inbounds nuw %struct.DdLocalCache, ptr %17, i32 0, i32 0
  %19 = load ptr, ptr %18, align 8, !tbaa !34
  %20 = load i32, ptr %7, align 4, !tbaa !8
  %21 = load ptr, ptr %4, align 8, !tbaa !10
  %22 = getelementptr inbounds nuw %struct.DdLocalCache, ptr %21, i32 0, i32 1
  %23 = load i32, ptr %22, align 8, !tbaa !32
  %24 = mul i32 %20, %23
  %25 = zext i32 %24 to i64
  %26 = getelementptr inbounds nuw i8, ptr %19, i64 %25
  store ptr %26, ptr %8, align 8, !tbaa !51
  %27 = load ptr, ptr %8, align 8, !tbaa !51
  %28 = getelementptr inbounds nuw %struct.DdLocalCacheItem, ptr %27, i32 0, i32 1
  %29 = getelementptr inbounds [1 x ptr], ptr %28, i64 0, i64 0
  %30 = load ptr, ptr %5, align 8, !tbaa !49
  %31 = load ptr, ptr %4, align 8, !tbaa !10
  %32 = getelementptr inbounds nuw %struct.DdLocalCache, ptr %31, i32 0, i32 2
  %33 = load i32, ptr %32, align 4, !tbaa !31
  %34 = zext i32 %33 to i64
  %35 = mul i64 %34, 8
  call void @llvm.memcpy.p0.p0.i64(ptr align 8 %29, ptr align 8 %30, i64 %35, i1 false)
  %36 = load ptr, ptr %6, align 8, !tbaa !50
  %37 = load ptr, ptr %8, align 8, !tbaa !51
  %38 = getelementptr inbounds nuw %struct.DdLocalCacheItem, ptr %37, i32 0, i32 0
  store ptr %36, ptr %38, align 8, !tbaa !52
  call void @llvm.lifetime.end.p0(i64 8, ptr %8) #10
  call void @llvm.lifetime.end.p0(i64 4, ptr %7) #10
  ret void
}