; Function Attrs: nofree norecurse nosync nounwind memory(readwrite, inaccessiblemem: none) uwtable
define void @cuddLocalCacheInsert(ptr noundef readonly captures(none) %0, ptr noundef readonly captures(none) %1, ptr noundef %2) local_unnamed_addr #6 {
  %4 = getelementptr inbounds nuw i8, ptr %0, i64 12
  %5 = load i32, ptr %4, align 4, !tbaa !28
  %6 = getelementptr inbounds nuw i8, ptr %0, i64 20
  %7 = load i32, ptr %6, align 4, !tbaa !33
  %8 = load ptr, ptr %1, align 8, !tbaa !45
  %9 = ptrtoint ptr %8 to i64
  %10 = trunc i64 %9 to i32
  %11 = mul i32 %10, 4256249
  %12 = icmp ugt i32 %5, 1
  %wide.trip.count.i = zext i32 %5 to i64
  br i1 %12, label %.lr.ph.i, label %ddLCHash.exit

.lr.ph.i:                                         ; preds = %3, %.lr.ph.i
  %indvars.iv.i = phi i64 [ %indvars.iv.next.i, %.lr.ph.i ], [ 1, %3 ]
  %.089.i = phi i32 [ %18, %.lr.ph.i ], [ %11, %3 ]
  %13 = mul i32 %.089.i, 12582917
  %14 = getelementptr inbounds nuw ptr, ptr %1, i64 %indvars.iv.i
  %15 = load ptr, ptr %14, align 8, !tbaa !45
  %16 = ptrtoint ptr %15 to i64
  %17 = trunc i64 %16 to i32
  %18 = add i32 %13, %17
  %indvars.iv.next.i = add nuw nsw i64 %indvars.iv.i, 1
  %exitcond.not.i = icmp eq i64 %indvars.iv.next.i, %wide.trip.count.i
  br i1 %exitcond.not.i, label %ddLCHash.exit, label %.lr.ph.i, !llvm.loop !46

ddLCHash.exit:                                    ; preds = %.lr.ph.i, %3
  %.08.lcssa.i = phi i32 [ %11, %3 ], [ %18, %.lr.ph.i ]
  %19 = lshr i32 %.08.lcssa.i, %7
  %20 = load ptr, ptr %0, align 8, !tbaa !31
  %21 = getelementptr inbounds nuw i8, ptr %0, i64 8
  %22 = load i32, ptr %21, align 8, !tbaa !29
  %23 = mul i32 %22, %19
  %24 = zext i32 %23 to i64
  %25 = getelementptr inbounds nuw i8, ptr %20, i64 %24
  %26 = getelementptr inbounds nuw i8, ptr %25, i64 8
  %27 = shl nuw nsw i64 %wide.trip.count.i, 3
  tail call void @llvm.memcpy.p0.p0.i64(ptr nonnull align 8 %26, ptr nonnull align 8 %1, i64 %27, i1 false)
  store ptr %2, ptr %25, align 8, !tbaa !47
  ret void
}